; Function Attrs: mustprogress uwtable
define void @_ZN6icu_7716BytesTrieBuilderC2ER10UErrorCode(ptr noundef nonnull align 8 dereferenceable(56) %0, ptr noundef nonnull align 4 captures(none) dereferenceable(4) %1) unnamed_addr #1 align 2 personality ptr @__gxx_personality_v0 {
  tail call void @_ZN6icu_7717StringTrieBuilderC2Ev(ptr noundef nonnull align 8 dereferenceable(16) %0)
  store ptr getelementptr inbounds nuw inrange(-16, 160) (i8, ptr @_ZTVN6icu_7716BytesTrieBuilderE, i64 16), ptr %0, align 8, !tbaa !21
  %3 = getelementptr inbounds nuw i8, ptr %0, i64 16
  tail call void @llvm.memset.p0.i64(ptr noundef nonnull align 8 dereferenceable(40) %3, i8 0, i64 40, i1 false)
  %4 = load i32, ptr %1, align 4, !tbaa !13
  %5 = icmp slt i32 %4, 1
  br i1 %5, label %6, label %16

6:                                                ; preds = %2
  %7 = tail call noundef ptr @_ZN6icu_777UMemorynwEm(i64 noundef 64) #19
  %8 = icmp eq ptr %7, null
  br i1 %8, label %13, label %9

9:                                                ; preds = %6
  invoke void @_ZN6icu_7715MaybeStackArrayIcLi40EEC1Ev(ptr noundef nonnull align 8 dereferenceable(60) %7)
          to label %10 unwind label %14

10:                                               ; preds = %9
  %11 = getelementptr inbounds nuw i8, ptr %7, i64 56
  store i32 0, ptr %11, align 8, !tbaa !15
  %12 = load ptr, ptr %7, align 8, !tbaa !3
  store i8 0, ptr %12, align 1, !tbaa !20
  store ptr %7, ptr %3, align 8, !tbaa !23
  br label %16

13:                                               ; preds = %6
  store ptr null, ptr %3, align 8, !tbaa !23
  store i32 7, ptr %1, align 4, !tbaa !13
  br label %16

14:                                               ; preds = %9
  %15 = landingpad { ptr, i32 }
          cleanup
  tail call void @_ZN6icu_777UMemorydlEPv(ptr noundef nonnull %7) #19
  tail call void @_ZN6icu_7717StringTrieBuilderD2Ev(ptr noundef nonnull align 8 dereferenceable(16) %0) #19
  resume { ptr, i32 } %15

16:                                               ; preds = %10, %2, %13
  ret void
}